target datalayout = "e-m:e-p270:32:32-p271:32:32-p272:64:64-i64:64-i128:128-f80:128-n8:16:32:64-S128"
target triple = "x86_64-pc-linux-gnu"

; Function Attrs: nounwind uwtable
define noalias ptr @pmix_argv_copy_strip(ptr noundef %0) #0 {
  %2 = alloca ptr, align 8
  %3 = alloca ptr, align 8
  %4 = alloca ptr, align 8
  %5 = alloca i32, align 4
  %6 = alloca ptr, align 8
  %7 = alloca i8, align 1
  %8 = alloca i64, align 8
  %9 = alloca i32, align 4
  store ptr %0, ptr %3, align 8, !tbaa !14
  call void @llvm.lifetime.start.p0(i64 8, ptr %4) #7
  store ptr null, ptr %4, align 8, !tbaa !14
  call void @llvm.lifetime.start.p0(i64 4, ptr %5) #7
  call void @llvm.lifetime.start.p0(i64 8, ptr %6) #7
  call void @llvm.lifetime.start.p0(i64 1, ptr %7) #7
  call void @llvm.lifetime.start.p0(i64 8, ptr %8) #7
  %10 = load ptr, ptr %3, align 8, !tbaa !14
  %11 = icmp eq ptr null, %10
  br i1 %11, label %12, label %13

12:                                               ; preds = %1
  store ptr null, ptr %2, align 8
  store i32 1, ptr %9, align 4
  br label %105

13:                                               ; preds = %1
  %14 = call noalias ptr @malloc(i64 noundef 8) #9
  store ptr %14, ptr %4, align 8, !tbaa !14
  %15 = load ptr, ptr %4, align 8, !tbaa !14
  %16 = getelementptr inbounds ptr, ptr %15, i64 0
  store ptr null, ptr %16, align 8, !tbaa !10
  store i32 0, ptr %5, align 4, !tbaa !12
  br label %17

17:                                               ; preds = %100, %13
  %18 = load ptr, ptr %3, align 8, !tbaa !14
  %19 = load i32, ptr %5, align 4, !tbaa !12
  %20 = sext i32 %19 to i64
  %21 = getelementptr inbounds ptr, ptr %18, i64 %20
  %22 = load ptr, ptr %21, align 8, !tbaa !10
  %23 = icmp ne ptr null, %22
  br i1 %23, label %24, label %103

24:                                               ; preds = %17
  store i8 0, ptr %7, align 1, !tbaa !24
  %25 = load ptr, ptr %3, align 8, !tbaa !14
  %26 = load i32, ptr %5, align 4, !tbaa !12
  %27 = sext i32 %26 to i64
  %28 = getelementptr inbounds ptr, ptr %25, i64 %27
  %29 = load ptr, ptr %28, align 8, !tbaa !10
  store ptr %29, ptr %6, align 8, !tbaa !10
  %30 = load ptr, ptr %3, align 8, !tbaa !14
  %31 = load i32, ptr %5, align 4, !tbaa !12
  %32 = sext i32 %31 to i64
  %33 = getelementptr inbounds ptr, ptr %30, i64 %32
  %34 = load ptr, ptr %33, align 8, !tbaa !10
  %35 = getelementptr inbounds i8, ptr %34, i64 0
  %36 = load i8, ptr %35, align 1, !tbaa !21
  %37 = sext i8 %36 to i32
  %38 = icmp eq i32 34, %37
  br i1 %38, label %39, label %42

39:                                               ; preds = %24
  %40 = load ptr, ptr %6, align 8, !tbaa !10
  %41 = getelementptr inbounds nuw i8, ptr %40, i32 1
  store ptr %41, ptr %6, align 8, !tbaa !10
  br label %42

42:                                               ; preds = %39, %24
  %43 = load ptr, ptr %3, align 8, !tbaa !14
  %44 = load i32, ptr %5, align 4, !tbaa !12
  %45 = sext i32 %44 to i64
  %46 = getelementptr inbounds ptr, ptr %43, i64 %45
  %47 = load ptr, ptr %46, align 8, !tbaa !10
  %48 = call i64 @strlen(ptr noundef %47) #8
  store i64 %48, ptr %8, align 8, !tbaa !18
  %49 = load ptr, ptr %3, align 8, !tbaa !14
  %50 = load i32, ptr %5, align 4, !tbaa !12
  %51 = sext i32 %50 to i64
  %52 = getelementptr inbounds ptr, ptr %49, i64 %51
  %53 = load ptr, ptr %52, align 8, !tbaa !10
  %54 = load i64, ptr %8, align 8, !tbaa !18
  %55 = sub i64 %54, 1
  %56 = getelementptr inbounds nuw i8, ptr %53, i64 %55
  %57 = load i8, ptr %56, align 1, !tbaa !21
  %58 = sext i8 %57 to i32
  %59 = icmp eq i32 34, %58
  br i1 %59, label %60, label %69

60:                                               ; preds = %42
  %61 = load ptr, ptr %3, align 8, !tbaa !14
  %62 = load i32, ptr %5, align 4, !tbaa !12
  %63 = sext i32 %62 to i64
  %64 = getelementptr inbounds ptr, ptr %61, i64 %63
  %65 = load ptr, ptr %64, align 8, !tbaa !10
  %66 = load i64, ptr %8, align 8, !tbaa !18
  %67 = sub i64 %66, 1
  %68 = getelementptr inbounds nuw i8, ptr %65, i64 %67
  store i8 0, ptr %68, align 1, !tbaa !21
  store i8 1, ptr %7, align 1, !tbaa !24
  br label %69

69:                                               ; preds = %60, %42
  %70 = load ptr, ptr %6, align 8, !tbaa !10
  %71 = call i32 @PMIx_Argv_append_nosize(ptr noundef %4, ptr noundef %70)
  %72 = icmp ne i32 0, %71
  br i1 %72, label %73, label %87

73:                                               ; preds = %69
  %74 = load ptr, ptr %4, align 8, !tbaa !14
  call void @PMIx_Argv_free(ptr noundef %74)
  %75 = load i8, ptr %7, align 1, !tbaa !24, !range !26, !noundef !27
  %76 = trunc i8 %75 to i1
  br i1 %76, label %77, label %86

77:                                               ; preds = %73
  %78 = load ptr, ptr %3, align 8, !tbaa !14
  %79 = load i32, ptr %5, align 4, !tbaa !12
  %80 = sext i32 %79 to i64
  %81 = getelementptr inbounds ptr, ptr %78, i64 %80
  %82 = load ptr, ptr %81, align 8, !tbaa !10
  %83 = load i64, ptr %8, align 8, !tbaa !18
  %84 = sub i64 %83, 1
  %85 = getelementptr inbounds nuw i8, ptr %82, i64 %84
  store i8 34, ptr %85, align 1, !tbaa !21
  br label %86

86:                                               ; preds = %77, %73
  store ptr null, ptr %2, align 8
  store i32 1, ptr %9, align 4
  br label %105

87:                                               ; preds = %69
  %88 = load i8, ptr %7, align 1, !tbaa !24, !range !26, !noundef !27
  %89 = trunc i8 %88 to i1
  br i1 %89, label %90, label %99

90:                                               ; preds = %87
  %91 = load ptr, ptr %3, align 8, !tbaa !14
  %92 = load i32, ptr %5, align 4, !tbaa !12
  %93 = sext i32 %92 to i64
  %94 = getelementptr inbounds ptr, ptr %91, i64 %93
  %95 = load ptr, ptr %94, align 8, !tbaa !10
  %96 = load i64, ptr %8, align 8, !tbaa !18
  %97 = sub i64 %96, 1
  %98 = getelementptr inbounds nuw i8, ptr %95, i64 %97
  store i8 34, ptr %98, align 1, !tbaa !21
  br label %99

99:                                               ; preds = %90, %87
  br label %100

100:                                              ; preds = %99
  %101 = load i32, ptr %5, align 4, !tbaa !12
  %102 = add nsw i32 %101, 1
  store i32 %102, ptr %5, align 4, !tbaa !12
  br label %17, !llvm.loop !28

103:                                              ; preds = %17
  %104 = load ptr, ptr %4, align 8, !tbaa !14
  store ptr %104, ptr %2, align 8
  store i32 1, ptr %9, align 4
  br label %105

105:                                              ; preds = %103, %86, %12
  call void @llvm.lifetime.end.p0(i64 8, ptr %8) #7
  call void @llvm.lifetime.end.p0(i64 1, ptr %7) #7
  call void @llvm.lifetime.end.p0(i64 8, ptr %6) #7
  call void @llvm.lifetime.end.p0(i64 4, ptr %5) #7
  call void @llvm.lifetime.end.p0(i64 8, ptr %4) #7
  %106 = load ptr, ptr %2, align 8
  ret ptr %106
}