; Function Attrs: nounwind uwtable
define noalias ptr @pmix_argv_copy_strip(ptr noundef readonly captures(address_is_null) %0) local_unnamed_addr #0 {
  %2 = alloca ptr, align 8
  call void @llvm.lifetime.start.p0(i64 8, ptr nonnull %2) #10
  %3 = icmp eq ptr %0, null
  br i1 %3, label %._crit_edge, label %4

4:                                                ; preds = %1
  %5 = tail call noalias dereferenceable_or_null(8) ptr @malloc(i64 noundef 8) #12
  store ptr %5, ptr %2, align 8, !tbaa !3
  store ptr null, ptr %5, align 8, !tbaa !10
  %6 = load ptr, ptr %0, align 8, !tbaa !10
  %.not39 = icmp eq ptr %6, null
  br i1 %.not39, label %._crit_edge, label %.lr.ph

.lr.ph:                                           ; preds = %4, %.thread33
  %indvars.iv = phi i64 [ %indvars.iv.next, %.thread33 ], [ 0, %4 ]
  %7 = phi ptr [ %29, %.thread33 ], [ %6, %4 ]
  %8 = getelementptr inbounds nuw ptr, ptr %0, i64 %indvars.iv
  %9 = load i8, ptr %7, align 1, !tbaa !15
  %10 = icmp eq i8 %9, 34
  %spec.select.idx = zext i1 %10 to i64
  %spec.select = getelementptr inbounds nuw i8, ptr %7, i64 %spec.select.idx
  %11 = call i64 @strlen(ptr noundef nonnull dereferenceable(1) %7) #11
  %12 = add i64 %11, -1
  %13 = getelementptr inbounds nuw i8, ptr %7, i64 %12
  %14 = load i8, ptr %13, align 1, !tbaa !15
  %15 = icmp eq i8 %14, 34
  br i1 %15, label %16, label %.thread

16:                                               ; preds = %.lr.ph
  store i8 0, ptr %13, align 1, !tbaa !15
  %17 = call i32 @PMIx_Argv_append_nosize(ptr noundef nonnull %2, ptr noundef nonnull %spec.select) #10
  %.not31 = icmp eq i32 %17, 0
  br i1 %.not31, label %25, label %21

.thread:                                          ; preds = %.lr.ph
  %18 = call i32 @PMIx_Argv_append_nosize(ptr noundef nonnull %2, ptr noundef nonnull %spec.select) #10
  %.not3132 = icmp eq i32 %18, 0
  br i1 %.not3132, label %.thread33, label %19

19:                                               ; preds = %.thread
  %20 = load ptr, ptr %2, align 8, !tbaa !3
  call void @PMIx_Argv_free(ptr noundef %20) #10
  br label %._crit_edge

21:                                               ; preds = %16
  %22 = load ptr, ptr %2, align 8, !tbaa !3
  call void @PMIx_Argv_free(ptr noundef %22) #10
  %23 = load ptr, ptr %8, align 8, !tbaa !10
  %24 = getelementptr inbounds nuw i8, ptr %23, i64 %12
  store i8 34, ptr %24, align 1, !tbaa !15
  br label %._crit_edge

25:                                               ; preds = %16
  %26 = load ptr, ptr %8, align 8, !tbaa !10
  %27 = getelementptr inbounds nuw i8, ptr %26, i64 %12
  store i8 34, ptr %27, align 1, !tbaa !15
  br label %.thread33

.thread33:                                        ; preds = %.thread, %25
  %indvars.iv.next = add nuw nsw i64 %indvars.iv, 1
  %28 = getelementptr inbounds nuw ptr, ptr %0, i64 %indvars.iv.next
  %29 = load ptr, ptr %28, align 8, !tbaa !10
  %.not = icmp eq ptr %29, null
  br i1 %.not, label %._crit_edge.loopexit, label %.lr.ph, !llvm.loop !18

._crit_edge.loopexit:                             ; preds = %.thread33
  %.pre = load ptr, ptr %2, align 8, !tbaa !3
  br label %._crit_edge

._crit_edge:                                      ; preds = %4, %._crit_edge.loopexit, %19, %21, %1
  %.0 = phi ptr [ null, %1 ], [ null, %21 ], [ null, %19 ], [ %.pre, %._crit_edge.loopexit ], [ %5, %4 ]
  call void @llvm.lifetime.end.p0(i64 8, ptr nonnull %2) #10
  ret ptr %.0
}